
rv32ui-p-lhu:     file format elf32-littleriscv


Disassembly of section .text.init:

00000000 <_start>:
   0:	0500006f          	j	50 <reset_vector>

00000004 <trap_vector>:
   4:	34202f73          	csrr	t5,mcause
   8:	00800f93          	li	t6,8
   c:	03ff0863          	beq	t5,t6,3c <write_tohost>
  10:	00900f93          	li	t6,9
  14:	03ff0463          	beq	t5,t6,3c <write_tohost>
  18:	00b00f93          	li	t6,11
  1c:	03ff0063          	beq	t5,t6,3c <write_tohost>
  20:	00000f13          	li	t5,0
  24:	000f0463          	beqz	t5,2c <trap_vector+0x28>
  28:	000f0067          	jr	t5
  2c:	34202f73          	csrr	t5,mcause
  30:	000f5463          	bgez	t5,38 <handle_exception>
  34:	0040006f          	j	38 <handle_exception>

00000038 <handle_exception>:
  38:	5391e193          	ori	gp,gp,1337

0000003c <write_tohost>:
  3c:	00001f17          	auipc	t5,0x1
  40:	fc3f2223          	sw	gp,-60(t5) # 1000 <tohost>
  44:	00001f17          	auipc	t5,0x1
  48:	fc0f2023          	sw	zero,-64(t5) # 1004 <tohost+0x4>
  4c:	ff1ff06f          	j	3c <write_tohost>

00000050 <reset_vector>:
  50:	00000093          	li	ra,0
  54:	00000113          	li	sp,0
  58:	00000193          	li	gp,0
  5c:	00000213          	li	tp,0
  60:	00000293          	li	t0,0
  64:	00000313          	li	t1,0
  68:	00000393          	li	t2,0
  6c:	00000413          	li	s0,0
  70:	00000493          	li	s1,0
  74:	00000513          	li	a0,0
  78:	00000593          	li	a1,0
  7c:	00000613          	li	a2,0
  80:	00000693          	li	a3,0
  84:	00000713          	li	a4,0
  88:	00000793          	li	a5,0
  8c:	00000813          	li	a6,0
  90:	00000893          	li	a7,0
  94:	00000913          	li	s2,0
  98:	00000993          	li	s3,0
  9c:	00000a13          	li	s4,0
  a0:	00000a93          	li	s5,0
  a4:	00000b13          	li	s6,0
  a8:	00000b93          	li	s7,0
  ac:	00000c13          	li	s8,0
  b0:	00000c93          	li	s9,0
  b4:	00000d13          	li	s10,0
  b8:	00000d93          	li	s11,0
  bc:	00000e13          	li	t3,0
  c0:	00000e93          	li	t4,0
  c4:	00000f13          	li	t5,0
  c8:	00000f93          	li	t6,0
  cc:	f1402573          	csrr	a0,mhartid
  d0:	00051063          	bnez	a0,d0 <reset_vector+0x80>
  d4:	00000297          	auipc	t0,0x0
  d8:	01028293          	addi	t0,t0,16 # e4 <reset_vector+0x94>
  dc:	30529073          	csrw	mtvec,t0
  e0:	18005073          	csrwi	satp,0
  e4:	00000297          	auipc	t0,0x0
  e8:	02028293          	addi	t0,t0,32 # 104 <reset_vector+0xb4>
  ec:	30529073          	csrw	mtvec,t0
  f0:	800002b7          	lui	t0,0x80000
  f4:	fff28293          	addi	t0,t0,-1 # 7fffffff <_end+0x7fffdfef>
  f8:	3b029073          	csrw	pmpaddr0,t0
  fc:	01f00293          	li	t0,31
 100:	3a029073          	csrw	pmpcfg0,t0
 104:	30405073          	csrwi	mie,0
 108:	00000297          	auipc	t0,0x0
 10c:	01428293          	addi	t0,t0,20 # 11c <reset_vector+0xcc>
 110:	30529073          	csrw	mtvec,t0
 114:	30205073          	csrwi	medeleg,0
 118:	30305073          	csrwi	mideleg,0
 11c:	00000193          	li	gp,0
 120:	00000297          	auipc	t0,0x0
 124:	ee428293          	addi	t0,t0,-284 # 4 <trap_vector>
 128:	30529073          	csrw	mtvec,t0
 12c:	00100513          	li	a0,1
 130:	01f51513          	slli	a0,a0,0x1f
 134:	00054c63          	bltz	a0,14c <reset_vector+0xfc>
 138:	0ff0000f          	fence
 13c:	00100193          	li	gp,1
 140:	05d00893          	li	a7,93
 144:	00000513          	li	a0,0
 148:	00000073          	ecall
 14c:	00000293          	li	t0,0
 150:	00028a63          	beqz	t0,164 <reset_vector+0x114>
 154:	10529073          	csrw	stvec,t0
 158:	0000b2b7          	lui	t0,0xb
 15c:	10928293          	addi	t0,t0,265 # b109 <_end+0x90f9>
 160:	30229073          	csrw	medeleg,t0
 164:	30005073          	csrwi	mstatus,0
 168:	00000297          	auipc	t0,0x0
 16c:	01428293          	addi	t0,t0,20 # 17c <test_2>
 170:	34129073          	csrw	mepc,t0
 174:	f1402573          	csrr	a0,mhartid
 178:	30200073          	mret

0000017c <test_2>:
 17c:	00200193          	li	gp,2
 180:	0ff00793          	li	a5,255
 184:	00002097          	auipc	ra,0x2
 188:	e7c08093          	addi	ra,ra,-388 # 2000 <begin_signature>
 18c:	0000d703          	lhu	a4,0(ra)
 190:	0ff00393          	li	t2,255
 194:	2a771063          	bne	a4,t2,434 <fail>

00000198 <test_3>:
 198:	00300193          	li	gp,3
 19c:	000107b7          	lui	a5,0x10
 1a0:	f0078793          	addi	a5,a5,-256 # ff00 <_end+0xdef0>
 1a4:	00002097          	auipc	ra,0x2
 1a8:	e5c08093          	addi	ra,ra,-420 # 2000 <begin_signature>
 1ac:	0020d703          	lhu	a4,2(ra)
 1b0:	000103b7          	lui	t2,0x10
 1b4:	f0038393          	addi	t2,t2,-256 # ff00 <_end+0xdef0>
 1b8:	26771e63          	bne	a4,t2,434 <fail>

000001bc <test_4>:
 1bc:	00400193          	li	gp,4
 1c0:	000017b7          	lui	a5,0x1
 1c4:	ff078793          	addi	a5,a5,-16 # ff0 <pass+0xba0>
 1c8:	00002097          	auipc	ra,0x2
 1cc:	e3808093          	addi	ra,ra,-456 # 2000 <begin_signature>
 1d0:	0040d703          	lhu	a4,4(ra)
 1d4:	000013b7          	lui	t2,0x1
 1d8:	ff038393          	addi	t2,t2,-16 # ff0 <pass+0xba0>
 1dc:	24771c63          	bne	a4,t2,434 <fail>

000001e0 <test_5>:
 1e0:	00500193          	li	gp,5
 1e4:	0000f7b7          	lui	a5,0xf
 1e8:	00f78793          	addi	a5,a5,15 # f00f <_end+0xcfff>
 1ec:	00002097          	auipc	ra,0x2
 1f0:	e1408093          	addi	ra,ra,-492 # 2000 <begin_signature>
 1f4:	0060d703          	lhu	a4,6(ra)
 1f8:	0000f3b7          	lui	t2,0xf
 1fc:	00f38393          	addi	t2,t2,15 # f00f <_end+0xcfff>
 200:	22771a63          	bne	a4,t2,434 <fail>

00000204 <test_6>:
 204:	00600193          	li	gp,6
 208:	0ff00793          	li	a5,255
 20c:	00002097          	auipc	ra,0x2
 210:	dfa08093          	addi	ra,ra,-518 # 2006 <tdat4>
 214:	ffa0d703          	lhu	a4,-6(ra)
 218:	0ff00393          	li	t2,255
 21c:	20771c63          	bne	a4,t2,434 <fail>

00000220 <test_7>:
 220:	00700193          	li	gp,7
 224:	000107b7          	lui	a5,0x10
 228:	f0078793          	addi	a5,a5,-256 # ff00 <_end+0xdef0>
 22c:	00002097          	auipc	ra,0x2
 230:	dda08093          	addi	ra,ra,-550 # 2006 <tdat4>
 234:	ffc0d703          	lhu	a4,-4(ra)
 238:	000103b7          	lui	t2,0x10
 23c:	f0038393          	addi	t2,t2,-256 # ff00 <_end+0xdef0>
 240:	1e771a63          	bne	a4,t2,434 <fail>

00000244 <test_8>:
 244:	00800193          	li	gp,8
 248:	000017b7          	lui	a5,0x1
 24c:	ff078793          	addi	a5,a5,-16 # ff0 <pass+0xba0>
 250:	00002097          	auipc	ra,0x2
 254:	db608093          	addi	ra,ra,-586 # 2006 <tdat4>
 258:	ffe0d703          	lhu	a4,-2(ra)
 25c:	000013b7          	lui	t2,0x1
 260:	ff038393          	addi	t2,t2,-16 # ff0 <pass+0xba0>
 264:	1c771863          	bne	a4,t2,434 <fail>

00000268 <test_9>:
 268:	00900193          	li	gp,9
 26c:	0000f7b7          	lui	a5,0xf
 270:	00f78793          	addi	a5,a5,15 # f00f <_end+0xcfff>
 274:	00002097          	auipc	ra,0x2
 278:	d9208093          	addi	ra,ra,-622 # 2006 <tdat4>
 27c:	0000d703          	lhu	a4,0(ra)
 280:	0000f3b7          	lui	t2,0xf
 284:	00f38393          	addi	t2,t2,15 # f00f <_end+0xcfff>
 288:	1a771663          	bne	a4,t2,434 <fail>

0000028c <test_10>:
 28c:	00a00193          	li	gp,10
 290:	00002097          	auipc	ra,0x2
 294:	d7008093          	addi	ra,ra,-656 # 2000 <begin_signature>
 298:	fe008093          	addi	ra,ra,-32
 29c:	0200d283          	lhu	t0,32(ra)
 2a0:	0ff00393          	li	t2,255
 2a4:	18729863          	bne	t0,t2,434 <fail>

000002a8 <test_11>:
 2a8:	00b00193          	li	gp,11
 2ac:	00002097          	auipc	ra,0x2
 2b0:	d5408093          	addi	ra,ra,-684 # 2000 <begin_signature>
 2b4:	ffb08093          	addi	ra,ra,-5
 2b8:	0070d283          	lhu	t0,7(ra)
 2bc:	000103b7          	lui	t2,0x10
 2c0:	f0038393          	addi	t2,t2,-256 # ff00 <_end+0xdef0>
 2c4:	16729863          	bne	t0,t2,434 <fail>

000002c8 <test_12>:
 2c8:	00c00193          	li	gp,12
 2cc:	00000213          	li	tp,0
 2d0:	00002097          	auipc	ra,0x2
 2d4:	d3208093          	addi	ra,ra,-718 # 2002 <tdat2>
 2d8:	0020d703          	lhu	a4,2(ra)
 2dc:	00070313          	mv	t1,a4
 2e0:	000013b7          	lui	t2,0x1
 2e4:	ff038393          	addi	t2,t2,-16 # ff0 <pass+0xba0>
 2e8:	14731663          	bne	t1,t2,434 <fail>
 2ec:	00120213          	addi	tp,tp,1 # 1 <_start+0x1>
 2f0:	00200293          	li	t0,2
 2f4:	fc521ee3          	bne	tp,t0,2d0 <test_12+0x8>

000002f8 <test_13>:
 2f8:	00d00193          	li	gp,13
 2fc:	00000213          	li	tp,0
 300:	00002097          	auipc	ra,0x2
 304:	d0408093          	addi	ra,ra,-764 # 2004 <tdat3>
 308:	0020d703          	lhu	a4,2(ra)
 30c:	00000013          	nop
 310:	00070313          	mv	t1,a4
 314:	0000f3b7          	lui	t2,0xf
 318:	00f38393          	addi	t2,t2,15 # f00f <_end+0xcfff>
 31c:	10731c63          	bne	t1,t2,434 <fail>
 320:	00120213          	addi	tp,tp,1 # 1 <_start+0x1>
 324:	00200293          	li	t0,2
 328:	fc521ce3          	bne	tp,t0,300 <test_13+0x8>

0000032c <test_14>:
 32c:	00e00193          	li	gp,14
 330:	00000213          	li	tp,0
 334:	00002097          	auipc	ra,0x2
 338:	ccc08093          	addi	ra,ra,-820 # 2000 <begin_signature>
 33c:	0020d703          	lhu	a4,2(ra)
 340:	00000013          	nop
 344:	00000013          	nop
 348:	00070313          	mv	t1,a4
 34c:	000103b7          	lui	t2,0x10
 350:	f0038393          	addi	t2,t2,-256 # ff00 <_end+0xdef0>
 354:	0e731063          	bne	t1,t2,434 <fail>
 358:	00120213          	addi	tp,tp,1 # 1 <_start+0x1>
 35c:	00200293          	li	t0,2
 360:	fc521ae3          	bne	tp,t0,334 <test_14+0x8>

00000364 <test_15>:
 364:	00f00193          	li	gp,15
 368:	00000213          	li	tp,0
 36c:	00002097          	auipc	ra,0x2
 370:	c9608093          	addi	ra,ra,-874 # 2002 <tdat2>
 374:	0020d703          	lhu	a4,2(ra)
 378:	000013b7          	lui	t2,0x1
 37c:	ff038393          	addi	t2,t2,-16 # ff0 <pass+0xba0>
 380:	0a771a63          	bne	a4,t2,434 <fail>
 384:	00120213          	addi	tp,tp,1 # 1 <_start+0x1>
 388:	00200293          	li	t0,2
 38c:	fe5210e3          	bne	tp,t0,36c <test_15+0x8>

00000390 <test_16>:
 390:	01000193          	li	gp,16
 394:	00000213          	li	tp,0
 398:	00002097          	auipc	ra,0x2
 39c:	c6c08093          	addi	ra,ra,-916 # 2004 <tdat3>
 3a0:	00000013          	nop
 3a4:	0020d703          	lhu	a4,2(ra)
 3a8:	0000f3b7          	lui	t2,0xf
 3ac:	00f38393          	addi	t2,t2,15 # f00f <_end+0xcfff>
 3b0:	08771263          	bne	a4,t2,434 <fail>
 3b4:	00120213          	addi	tp,tp,1 # 1 <_start+0x1>
 3b8:	00200293          	li	t0,2
 3bc:	fc521ee3          	bne	tp,t0,398 <test_16+0x8>

000003c0 <test_17>:
 3c0:	01100193          	li	gp,17
 3c4:	00000213          	li	tp,0
 3c8:	00002097          	auipc	ra,0x2
 3cc:	c3808093          	addi	ra,ra,-968 # 2000 <begin_signature>
 3d0:	00000013          	nop
 3d4:	00000013          	nop
 3d8:	0020d703          	lhu	a4,2(ra)
 3dc:	000103b7          	lui	t2,0x10
 3e0:	f0038393          	addi	t2,t2,-256 # ff00 <_end+0xdef0>
 3e4:	04771863          	bne	a4,t2,434 <fail>
 3e8:	00120213          	addi	tp,tp,1 # 1 <_start+0x1>
 3ec:	00200293          	li	t0,2
 3f0:	fc521ce3          	bne	tp,t0,3c8 <test_17+0x8>

000003f4 <test_18>:
 3f4:	01200193          	li	gp,18
 3f8:	00002297          	auipc	t0,0x2
 3fc:	c0828293          	addi	t0,t0,-1016 # 2000 <begin_signature>
 400:	0002d103          	lhu	sp,0(t0)
 404:	00200113          	li	sp,2
 408:	00200393          	li	t2,2
 40c:	02711463          	bne	sp,t2,434 <fail>

00000410 <test_19>:
 410:	01300193          	li	gp,19
 414:	00002297          	auipc	t0,0x2
 418:	bec28293          	addi	t0,t0,-1044 # 2000 <begin_signature>
 41c:	0002d103          	lhu	sp,0(t0)
 420:	00000013          	nop
 424:	00200113          	li	sp,2
 428:	00200393          	li	t2,2
 42c:	00711463          	bne	sp,t2,434 <fail>
 430:	02301063          	bne	zero,gp,450 <pass>

00000434 <fail>:
 434:	0ff0000f          	fence
 438:	00018063          	beqz	gp,438 <fail+0x4>
 43c:	00119193          	slli	gp,gp,0x1
 440:	0011e193          	ori	gp,gp,1
 444:	05d00893          	li	a7,93
 448:	00018513          	mv	a0,gp
 44c:	00000073          	ecall

00000450 <pass>:
 450:	0ff0000f          	fence
 454:	00100193          	li	gp,1
 458:	05d00893          	li	a7,93
 45c:	00000513          	li	a0,0
 460:	00000073          	ecall
 464:	c0001073          	unimp
 468:	0000                	.2byte	0x0
 46a:	0000                	.2byte	0x0
 46c:	0000                	.2byte	0x0
 46e:	0000                	.2byte	0x0
 470:	0000                	.2byte	0x0
 472:	0000                	.2byte	0x0
 474:	0000                	.2byte	0x0
 476:	0000                	.2byte	0x0
 478:	0000                	.2byte	0x0
 47a:	0000                	.2byte	0x0
