
rv32ui-p-srai:     file format elf32-littleriscv


Disassembly of section .text.init:

00000000 <_start>:
   0:	0500006f          	j	50 <reset_vector>

00000004 <trap_vector>:
   4:	34202f73          	csrr	t5,mcause
   8:	00800f93          	li	t6,8
   c:	03ff0863          	beq	t5,t6,3c <write_tohost>
  10:	00900f93          	li	t6,9
  14:	03ff0463          	beq	t5,t6,3c <write_tohost>
  18:	00b00f93          	li	t6,11
  1c:	03ff0063          	beq	t5,t6,3c <write_tohost>
  20:	00000f13          	li	t5,0
  24:	000f0463          	beqz	t5,2c <trap_vector+0x28>
  28:	000f0067          	jr	t5
  2c:	34202f73          	csrr	t5,mcause
  30:	000f5463          	bgez	t5,38 <handle_exception>
  34:	0040006f          	j	38 <handle_exception>

00000038 <handle_exception>:
  38:	5391e193          	ori	gp,gp,1337

0000003c <write_tohost>:
  3c:	00001f17          	auipc	t5,0x1
  40:	fc3f2223          	sw	gp,-60(t5) # 1000 <tohost>
  44:	00001f17          	auipc	t5,0x1
  48:	fc0f2023          	sw	zero,-64(t5) # 1004 <tohost+0x4>
  4c:	ff1ff06f          	j	3c <write_tohost>

00000050 <reset_vector>:
  50:	00000093          	li	ra,0
  54:	00000113          	li	sp,0
  58:	00000193          	li	gp,0
  5c:	00000213          	li	tp,0
  60:	00000293          	li	t0,0
  64:	00000313          	li	t1,0
  68:	00000393          	li	t2,0
  6c:	00000413          	li	s0,0
  70:	00000493          	li	s1,0
  74:	00000513          	li	a0,0
  78:	00000593          	li	a1,0
  7c:	00000613          	li	a2,0
  80:	00000693          	li	a3,0
  84:	00000713          	li	a4,0
  88:	00000793          	li	a5,0
  8c:	00000813          	li	a6,0
  90:	00000893          	li	a7,0
  94:	00000913          	li	s2,0
  98:	00000993          	li	s3,0
  9c:	00000a13          	li	s4,0
  a0:	00000a93          	li	s5,0
  a4:	00000b13          	li	s6,0
  a8:	00000b93          	li	s7,0
  ac:	00000c13          	li	s8,0
  b0:	00000c93          	li	s9,0
  b4:	00000d13          	li	s10,0
  b8:	00000d93          	li	s11,0
  bc:	00000e13          	li	t3,0
  c0:	00000e93          	li	t4,0
  c4:	00000f13          	li	t5,0
  c8:	00000f93          	li	t6,0
  cc:	f1402573          	csrr	a0,mhartid
  d0:	00051063          	bnez	a0,d0 <reset_vector+0x80>
  d4:	00000297          	auipc	t0,0x0
  d8:	01028293          	addi	t0,t0,16 # e4 <reset_vector+0x94>
  dc:	30529073          	csrw	mtvec,t0
  e0:	18005073          	csrwi	satp,0
  e4:	00000297          	auipc	t0,0x0
  e8:	02028293          	addi	t0,t0,32 # 104 <reset_vector+0xb4>
  ec:	30529073          	csrw	mtvec,t0
  f0:	800002b7          	lui	t0,0x80000
  f4:	fff28293          	addi	t0,t0,-1 # 7fffffff <_end+0x7fffdfff>
  f8:	3b029073          	csrw	pmpaddr0,t0
  fc:	01f00293          	li	t0,31
 100:	3a029073          	csrw	pmpcfg0,t0
 104:	30405073          	csrwi	mie,0
 108:	00000297          	auipc	t0,0x0
 10c:	01428293          	addi	t0,t0,20 # 11c <reset_vector+0xcc>
 110:	30529073          	csrw	mtvec,t0
 114:	30205073          	csrwi	medeleg,0
 118:	30305073          	csrwi	mideleg,0
 11c:	00000193          	li	gp,0
 120:	00000297          	auipc	t0,0x0
 124:	ee428293          	addi	t0,t0,-284 # 4 <trap_vector>
 128:	30529073          	csrw	mtvec,t0
 12c:	00100513          	li	a0,1
 130:	01f51513          	slli	a0,a0,0x1f
 134:	00054c63          	bltz	a0,14c <reset_vector+0xfc>
 138:	0ff0000f          	fence
 13c:	00100193          	li	gp,1
 140:	05d00893          	li	a7,93
 144:	00000513          	li	a0,0
 148:	00000073          	ecall
 14c:	00000293          	li	t0,0
 150:	00028a63          	beqz	t0,164 <reset_vector+0x114>
 154:	10529073          	csrw	stvec,t0
 158:	0000b2b7          	lui	t0,0xb
 15c:	10928293          	addi	t0,t0,265 # b109 <_end+0x9109>
 160:	30229073          	csrw	medeleg,t0
 164:	30005073          	csrwi	mstatus,0
 168:	00000297          	auipc	t0,0x0
 16c:	01428293          	addi	t0,t0,20 # 17c <test_2>
 170:	34129073          	csrw	mepc,t0
 174:	f1402573          	csrr	a0,mhartid
 178:	30200073          	mret

0000017c <test_2>:
 17c:	00200193          	li	gp,2
 180:	00000093          	li	ra,0
 184:	4000d713          	srai	a4,ra,0x0
 188:	00000393          	li	t2,0
 18c:	2a771463          	bne	a4,t2,434 <fail>

00000190 <test_3>:
 190:	00300193          	li	gp,3
 194:	800000b7          	lui	ra,0x80000
 198:	4010d713          	srai	a4,ra,0x1
 19c:	c00003b7          	lui	t2,0xc0000
 1a0:	28771a63          	bne	a4,t2,434 <fail>

000001a4 <test_4>:
 1a4:	00400193          	li	gp,4
 1a8:	800000b7          	lui	ra,0x80000
 1ac:	4070d713          	srai	a4,ra,0x7
 1b0:	ff0003b7          	lui	t2,0xff000
 1b4:	28771063          	bne	a4,t2,434 <fail>

000001b8 <test_5>:
 1b8:	00500193          	li	gp,5
 1bc:	800000b7          	lui	ra,0x80000
 1c0:	40e0d713          	srai	a4,ra,0xe
 1c4:	fffe03b7          	lui	t2,0xfffe0
 1c8:	26771663          	bne	a4,t2,434 <fail>

000001cc <test_6>:
 1cc:	00600193          	li	gp,6
 1d0:	800000b7          	lui	ra,0x80000
 1d4:	00108093          	addi	ra,ra,1 # 80000001 <_end+0x7fffe001>
 1d8:	41f0d713          	srai	a4,ra,0x1f
 1dc:	fff00393          	li	t2,-1
 1e0:	24771a63          	bne	a4,t2,434 <fail>

000001e4 <test_7>:
 1e4:	00700193          	li	gp,7
 1e8:	800000b7          	lui	ra,0x80000
 1ec:	fff08093          	addi	ra,ra,-1 # 7fffffff <_end+0x7fffdfff>
 1f0:	4000d713          	srai	a4,ra,0x0
 1f4:	800003b7          	lui	t2,0x80000
 1f8:	fff38393          	addi	t2,t2,-1 # 7fffffff <_end+0x7fffdfff>
 1fc:	22771c63          	bne	a4,t2,434 <fail>

00000200 <test_8>:
 200:	00800193          	li	gp,8
 204:	800000b7          	lui	ra,0x80000
 208:	fff08093          	addi	ra,ra,-1 # 7fffffff <_end+0x7fffdfff>
 20c:	4010d713          	srai	a4,ra,0x1
 210:	400003b7          	lui	t2,0x40000
 214:	fff38393          	addi	t2,t2,-1 # 3fffffff <_end+0x3fffdfff>
 218:	20771e63          	bne	a4,t2,434 <fail>

0000021c <test_9>:
 21c:	00900193          	li	gp,9
 220:	800000b7          	lui	ra,0x80000
 224:	fff08093          	addi	ra,ra,-1 # 7fffffff <_end+0x7fffdfff>
 228:	4070d713          	srai	a4,ra,0x7
 22c:	010003b7          	lui	t2,0x1000
 230:	fff38393          	addi	t2,t2,-1 # ffffff <_end+0xffdfff>
 234:	20771063          	bne	a4,t2,434 <fail>

00000238 <test_10>:
 238:	00a00193          	li	gp,10
 23c:	800000b7          	lui	ra,0x80000
 240:	fff08093          	addi	ra,ra,-1 # 7fffffff <_end+0x7fffdfff>
 244:	40e0d713          	srai	a4,ra,0xe
 248:	000203b7          	lui	t2,0x20
 24c:	fff38393          	addi	t2,t2,-1 # 1ffff <_end+0x1dfff>
 250:	1e771263          	bne	a4,t2,434 <fail>

00000254 <test_11>:
 254:	00b00193          	li	gp,11
 258:	800000b7          	lui	ra,0x80000
 25c:	fff08093          	addi	ra,ra,-1 # 7fffffff <_end+0x7fffdfff>
 260:	41f0d713          	srai	a4,ra,0x1f
 264:	00000393          	li	t2,0
 268:	1c771663          	bne	a4,t2,434 <fail>

0000026c <test_12>:
 26c:	00c00193          	li	gp,12
 270:	818180b7          	lui	ra,0x81818
 274:	18108093          	addi	ra,ra,385 # 81818181 <_end+0x81816181>
 278:	4000d713          	srai	a4,ra,0x0
 27c:	818183b7          	lui	t2,0x81818
 280:	18138393          	addi	t2,t2,385 # 81818181 <_end+0x81816181>
 284:	1a771863          	bne	a4,t2,434 <fail>

00000288 <test_13>:
 288:	00d00193          	li	gp,13
 28c:	818180b7          	lui	ra,0x81818
 290:	18108093          	addi	ra,ra,385 # 81818181 <_end+0x81816181>
 294:	4010d713          	srai	a4,ra,0x1
 298:	c0c0c3b7          	lui	t2,0xc0c0c
 29c:	0c038393          	addi	t2,t2,192 # c0c0c0c0 <_end+0xc0c0a0c0>
 2a0:	18771a63          	bne	a4,t2,434 <fail>

000002a4 <test_14>:
 2a4:	00e00193          	li	gp,14
 2a8:	818180b7          	lui	ra,0x81818
 2ac:	18108093          	addi	ra,ra,385 # 81818181 <_end+0x81816181>
 2b0:	4070d713          	srai	a4,ra,0x7
 2b4:	ff0303b7          	lui	t2,0xff030
 2b8:	30338393          	addi	t2,t2,771 # ff030303 <_end+0xff02e303>
 2bc:	16771c63          	bne	a4,t2,434 <fail>

000002c0 <test_15>:
 2c0:	00f00193          	li	gp,15
 2c4:	818180b7          	lui	ra,0x81818
 2c8:	18108093          	addi	ra,ra,385 # 81818181 <_end+0x81816181>
 2cc:	40e0d713          	srai	a4,ra,0xe
 2d0:	fffe03b7          	lui	t2,0xfffe0
 2d4:	60638393          	addi	t2,t2,1542 # fffe0606 <_end+0xfffde606>
 2d8:	14771e63          	bne	a4,t2,434 <fail>

000002dc <test_16>:
 2dc:	01000193          	li	gp,16
 2e0:	818180b7          	lui	ra,0x81818
 2e4:	18108093          	addi	ra,ra,385 # 81818181 <_end+0x81816181>
 2e8:	41f0d713          	srai	a4,ra,0x1f
 2ec:	fff00393          	li	t2,-1
 2f0:	14771263          	bne	a4,t2,434 <fail>

000002f4 <test_17>:
 2f4:	01100193          	li	gp,17
 2f8:	800000b7          	lui	ra,0x80000
 2fc:	4070d093          	srai	ra,ra,0x7
 300:	ff0003b7          	lui	t2,0xff000
 304:	12709863          	bne	ra,t2,434 <fail>

00000308 <test_18>:
 308:	01200193          	li	gp,18
 30c:	00000213          	li	tp,0
 310:	800000b7          	lui	ra,0x80000
 314:	4070d713          	srai	a4,ra,0x7
 318:	00070313          	mv	t1,a4
 31c:	00120213          	addi	tp,tp,1 # 1 <_start+0x1>
 320:	00200293          	li	t0,2
 324:	fe5216e3          	bne	tp,t0,310 <test_18+0x8>
 328:	ff0003b7          	lui	t2,0xff000
 32c:	10731463          	bne	t1,t2,434 <fail>

00000330 <test_19>:
 330:	01300193          	li	gp,19
 334:	00000213          	li	tp,0
 338:	800000b7          	lui	ra,0x80000
 33c:	40e0d713          	srai	a4,ra,0xe
 340:	00000013          	nop
 344:	00070313          	mv	t1,a4
 348:	00120213          	addi	tp,tp,1 # 1 <_start+0x1>
 34c:	00200293          	li	t0,2
 350:	fe5214e3          	bne	tp,t0,338 <test_19+0x8>
 354:	fffe03b7          	lui	t2,0xfffe0
 358:	0c731e63          	bne	t1,t2,434 <fail>

0000035c <test_20>:
 35c:	01400193          	li	gp,20
 360:	00000213          	li	tp,0
 364:	800000b7          	lui	ra,0x80000
 368:	00108093          	addi	ra,ra,1 # 80000001 <_end+0x7fffe001>
 36c:	41f0d713          	srai	a4,ra,0x1f
 370:	00000013          	nop
 374:	00000013          	nop
 378:	00070313          	mv	t1,a4
 37c:	00120213          	addi	tp,tp,1 # 1 <_start+0x1>
 380:	00200293          	li	t0,2
 384:	fe5210e3          	bne	tp,t0,364 <test_20+0x8>
 388:	fff00393          	li	t2,-1
 38c:	0a731463          	bne	t1,t2,434 <fail>

00000390 <test_21>:
 390:	01500193          	li	gp,21
 394:	00000213          	li	tp,0
 398:	800000b7          	lui	ra,0x80000
 39c:	4070d713          	srai	a4,ra,0x7
 3a0:	00120213          	addi	tp,tp,1 # 1 <_start+0x1>
 3a4:	00200293          	li	t0,2
 3a8:	fe5218e3          	bne	tp,t0,398 <test_21+0x8>
 3ac:	ff0003b7          	lui	t2,0xff000
 3b0:	08771263          	bne	a4,t2,434 <fail>

000003b4 <test_22>:
 3b4:	01600193          	li	gp,22
 3b8:	00000213          	li	tp,0
 3bc:	800000b7          	lui	ra,0x80000
 3c0:	00000013          	nop
 3c4:	40e0d713          	srai	a4,ra,0xe
 3c8:	00120213          	addi	tp,tp,1 # 1 <_start+0x1>
 3cc:	00200293          	li	t0,2
 3d0:	fe5216e3          	bne	tp,t0,3bc <test_22+0x8>
 3d4:	fffe03b7          	lui	t2,0xfffe0
 3d8:	04771e63          	bne	a4,t2,434 <fail>

000003dc <test_23>:
 3dc:	01700193          	li	gp,23
 3e0:	00000213          	li	tp,0
 3e4:	800000b7          	lui	ra,0x80000
 3e8:	00108093          	addi	ra,ra,1 # 80000001 <_end+0x7fffe001>
 3ec:	00000013          	nop
 3f0:	00000013          	nop
 3f4:	41f0d713          	srai	a4,ra,0x1f
 3f8:	00120213          	addi	tp,tp,1 # 1 <_start+0x1>
 3fc:	00200293          	li	t0,2
 400:	fe5212e3          	bne	tp,t0,3e4 <test_23+0x8>
 404:	fff00393          	li	t2,-1
 408:	02771663          	bne	a4,t2,434 <fail>

0000040c <test_24>:
 40c:	01800193          	li	gp,24
 410:	40405093          	srai	ra,zero,0x4
 414:	00000393          	li	t2,0
 418:	00709e63          	bne	ra,t2,434 <fail>

0000041c <test_25>:
 41c:	01900193          	li	gp,25
 420:	02100093          	li	ra,33
 424:	40a0d013          	srai	zero,ra,0xa
 428:	00000393          	li	t2,0
 42c:	00701463          	bne	zero,t2,434 <fail>
 430:	02301063          	bne	zero,gp,450 <pass>

00000434 <fail>:
 434:	0ff0000f          	fence
 438:	00018063          	beqz	gp,438 <fail+0x4>
 43c:	00119193          	slli	gp,gp,0x1
 440:	0011e193          	ori	gp,gp,1
 444:	05d00893          	li	a7,93
 448:	00018513          	mv	a0,gp
 44c:	00000073          	ecall

00000450 <pass>:
 450:	0ff0000f          	fence
 454:	00100193          	li	gp,1
 458:	05d00893          	li	a7,93
 45c:	00000513          	li	a0,0
 460:	00000073          	ecall
 464:	c0001073          	unimp
 468:	0000                	.2byte	0x0
 46a:	0000                	.2byte	0x0
 46c:	0000                	.2byte	0x0
 46e:	0000                	.2byte	0x0
 470:	0000                	.2byte	0x0
 472:	0000                	.2byte	0x0
 474:	0000                	.2byte	0x0
 476:	0000                	.2byte	0x0
 478:	0000                	.2byte	0x0
 47a:	0000                	.2byte	0x0
